target datalayout = "e-m:e-p270:32:32-p271:32:32-p272:64:64-i64:64-i128:128-f80:128-n8:16:32:64-S128"
target triple = "x86_64-pc-linux-gnu"

%struct.AC3EncodeContext = type { ptr, %struct.AC3EncOptions, ptr, %struct.AudioDSPContext, ptr, %struct.MECmpContext, %struct.AC3DSPContext, ptr, ptr, [6 x %struct.AC3Block], i32, i32, i32, i32, i32, i32, i32, i32, i32, i32, i32, [2 x i16], i64, i64, i32, i32, i32, i32, i32, i32, i32, ptr, i32, i32, i32, i32, i32, i32, i32, i32, [7 x i32], i32, i32, i32, i32, i32, [18 x i8], i32, i32, i32, i32, i32, i32, %struct.AC3BitAllocParameters, i32, [7 x i32], [7 x i32], i32, i32, i32, [6 x ptr], ptr, ptr, ptr, ptr, ptr, ptr, ptr, ptr, ptr, ptr, ptr, [7 x [6 x i8]], [7 x i8], i32, [7 x [6 x i8]], [7 x [6 x ptr]], i32, ptr, ptr, %union.anon, %union.anon.0 }
%struct.AC3EncOptions = type { i32, i32, float, float, i32, i32, i32, i32, i32, i32, i32, i32, float, float, float, float, i32, i32, i32, i32, i32, i32, i32, i32, i32, i32 }
%struct.AudioDSPContext = type { ptr, ptr, ptr }
%struct.MECmpContext = type { ptr, [6 x ptr], [6 x ptr], [6 x ptr], [6 x ptr], [6 x ptr], [6 x ptr], [6 x ptr], [6 x ptr], [6 x ptr], [6 x ptr], [6 x ptr], [6 x ptr], [6 x ptr], [6 x ptr], [2 x [4 x ptr]], [6 x ptr] }
%struct.AC3DSPContext = type { ptr, ptr, ptr, ptr, ptr, ptr, ptr, ptr, i32, i32, ptr, ptr }
%struct.AC3Block = type { [7 x ptr], [7 x ptr], [7 x ptr], [7 x ptr], [7 x ptr], [7 x ptr], [7 x ptr], [7 x ptr], [7 x ptr], [7 x ptr], i8, i32, [4 x i8], i32, i32, [7 x i8], i32, [7 x i8], [7 x i8], i32, i32, [7 x i32] }
%struct.AC3BitAllocParameters = type { i32, i32, i32, i32, i32, i32, i32, i32, i32 }
%union.anon = type { [256 x float] }
%union.anon.0 = type { [512 x float] }

; Function Attrs: nounwind uwtable
define void @ff_eac3_set_cpl_states(ptr noundef %0) #0 {
  %2 = alloca ptr, align 8
  %3 = alloca i32, align 4
  %4 = alloca i32, align 4
  %5 = alloca [7 x i32], align 16
  %6 = alloca ptr, align 8
  %7 = alloca ptr, align 8
  %8 = alloca i32, align 4
  store ptr %0, ptr %2, align 8, !tbaa !4
  call void @llvm.lifetime.start.p0(i64 4, ptr %3) #7
  call void @llvm.lifetime.start.p0(i64 4, ptr %4) #7
  call void @llvm.lifetime.start.p0(i64 28, ptr %5) #7
  store i32 1, ptr %3, align 4, !tbaa !29
  br label %9

9:                                                ; preds = %19, %1
  %10 = load i32, ptr %3, align 4, !tbaa !29
  %11 = load ptr, ptr %2, align 8, !tbaa !4
  %12 = getelementptr inbounds nuw %struct.AC3EncodeContext, ptr %11, i32 0, i32 24
  %13 = load i32, ptr %12, align 8, !tbaa !30
  %14 = icmp sle i32 %10, %13
  br i1 %14, label %15, label %22

15:                                               ; preds = %9
  %16 = load i32, ptr %3, align 4, !tbaa !29
  %17 = sext i32 %16 to i64
  %18 = getelementptr inbounds [7 x i32], ptr %5, i64 0, i64 %17
  store i32 1, ptr %18, align 4, !tbaa !29
  br label %19

19:                                               ; preds = %15
  %20 = load i32, ptr %3, align 4, !tbaa !29
  %21 = add nsw i32 %20, 1
  store i32 %21, ptr %3, align 4, !tbaa !29
  br label %9, !llvm.loop !34

22:                                               ; preds = %9
  store i32 0, ptr %4, align 4, !tbaa !29
  br label %23

23:                                               ; preds = %74, %22
  %24 = load i32, ptr %4, align 4, !tbaa !29
  %25 = load ptr, ptr %2, align 8, !tbaa !4
  %26 = getelementptr inbounds nuw %struct.AC3EncodeContext, ptr %25, i32 0, i32 17
  %27 = load i32, ptr %26, align 4, !tbaa !9
  %28 = icmp slt i32 %24, %27
  br i1 %28, label %29, label %77

29:                                               ; preds = %23
  call void @llvm.lifetime.start.p0(i64 8, ptr %6) #7
  %30 = load ptr, ptr %2, align 8, !tbaa !4
  %31 = getelementptr inbounds nuw %struct.AC3EncodeContext, ptr %30, i32 0, i32 9
  %32 = load i32, ptr %4, align 4, !tbaa !29
  %33 = sext i32 %32 to i64
  %34 = getelementptr inbounds [6 x %struct.AC3Block], ptr %31, i64 0, i64 %33
  store ptr %34, ptr %6, align 8, !tbaa !35
  store i32 1, ptr %3, align 4, !tbaa !29
  br label %35

35:                                               ; preds = %70, %29
  %36 = load i32, ptr %3, align 4, !tbaa !29
  %37 = load ptr, ptr %2, align 8, !tbaa !4
  %38 = getelementptr inbounds nuw %struct.AC3EncodeContext, ptr %37, i32 0, i32 24
  %39 = load i32, ptr %38, align 8, !tbaa !30
  %40 = icmp sle i32 %36, %39
  br i1 %40, label %41, label %73

41:                                               ; preds = %35
  %42 = load ptr, ptr %6, align 8, !tbaa !35
  %43 = getelementptr inbounds nuw %struct.AC3Block, ptr %42, i32 0, i32 15
  %44 = load i32, ptr %3, align 4, !tbaa !29
  %45 = sext i32 %44 to i64
  %46 = getelementptr inbounds [7 x i8], ptr %43, i64 0, i64 %45
  %47 = load i8, ptr %46, align 1, !tbaa !31
  %48 = icmp ne i8 %47, 0
  br i1 %48, label %49, label %65

49:                                               ; preds = %41
  %50 = load i32, ptr %3, align 4, !tbaa !29
  %51 = sext i32 %50 to i64
  %52 = getelementptr inbounds [7 x i32], ptr %5, i64 0, i64 %51
  %53 = load i32, ptr %52, align 4, !tbaa !29
  %54 = icmp ne i32 %53, 0
  br i1 %54, label %55, label %64

55:                                               ; preds = %49
  %56 = load ptr, ptr %6, align 8, !tbaa !35
  %57 = getelementptr inbounds nuw %struct.AC3Block, ptr %56, i32 0, i32 17
  %58 = load i32, ptr %3, align 4, !tbaa !29
  %59 = sext i32 %58 to i64
  %60 = getelementptr inbounds [7 x i8], ptr %57, i64 0, i64 %59
  store i8 2, ptr %60, align 1, !tbaa !31
  %61 = load i32, ptr %3, align 4, !tbaa !29
  %62 = sext i32 %61 to i64
  %63 = getelementptr inbounds [7 x i32], ptr %5, i64 0, i64 %62
  store i32 0, ptr %63, align 4, !tbaa !29
  br label %64

64:                                               ; preds = %55, %49
  br label %69

65:                                               ; preds = %41
  %66 = load i32, ptr %3, align 4, !tbaa !29
  %67 = sext i32 %66 to i64
  %68 = getelementptr inbounds [7 x i32], ptr %5, i64 0, i64 %67
  store i32 1, ptr %68, align 4, !tbaa !29
  br label %69

69:                                               ; preds = %65, %64
  br label %70

70:                                               ; preds = %69
  %71 = load i32, ptr %3, align 4, !tbaa !29
  %72 = add nsw i32 %71, 1
  store i32 %72, ptr %3, align 4, !tbaa !29
  br label %35, !llvm.loop !37

73:                                               ; preds = %35
  call void @llvm.lifetime.end.p0(i64 8, ptr %6) #7
  br label %74

74:                                               ; preds = %73
  %75 = load i32, ptr %4, align 4, !tbaa !29
  %76 = add nsw i32 %75, 1
  store i32 %76, ptr %4, align 4, !tbaa !29
  br label %23, !llvm.loop !38

77:                                               ; preds = %23
  store i32 0, ptr %4, align 4, !tbaa !29
  br label %78

78:                                               ; preds = %101, %77
  %79 = load i32, ptr %4, align 4, !tbaa !29
  %80 = load ptr, ptr %2, align 8, !tbaa !4
  %81 = getelementptr inbounds nuw %struct.AC3EncodeContext, ptr %80, i32 0, i32 17
  %82 = load i32, ptr %81, align 4, !tbaa !9
  %83 = icmp slt i32 %79, %82
  br i1 %83, label %84, label %104

84:                                               ; preds = %78
  call void @llvm.lifetime.start.p0(i64 8, ptr %7) #7
  %85 = load ptr, ptr %2, align 8, !tbaa !4
  %86 = getelementptr inbounds nuw %struct.AC3EncodeContext, ptr %85, i32 0, i32 9
  %87 = load i32, ptr %4, align 4, !tbaa !29
  %88 = sext i32 %87 to i64
  %89 = getelementptr inbounds [6 x %struct.AC3Block], ptr %86, i64 0, i64 %88
  store ptr %89, ptr %7, align 8, !tbaa !35
  %90 = load ptr, ptr %7, align 8, !tbaa !35
  %91 = getelementptr inbounds nuw %struct.AC3Block, ptr %90, i32 0, i32 14
  %92 = load i32, ptr %91, align 8, !tbaa !39
  %93 = icmp ne i32 %92, 0
  br i1 %93, label %94, label %97

94:                                               ; preds = %84
  %95 = load ptr, ptr %7, align 8, !tbaa !35
  %96 = getelementptr inbounds nuw %struct.AC3Block, ptr %95, i32 0, i32 20
  store i32 2, ptr %96, align 4, !tbaa !41
  store i32 11, ptr %8, align 4
  br label %98

97:                                               ; preds = %84
  store i32 0, ptr %8, align 4
  br label %98

98:                                               ; preds = %97, %94
  call void @llvm.lifetime.end.p0(i64 8, ptr %7) #7
  %99 = load i32, ptr %8, align 4
  switch i32 %99, label %105 [
    i32 0, label %100
    i32 11, label %104
  ]

100:                                              ; preds = %98
  br label %101

101:                                              ; preds = %100
  %102 = load i32, ptr %4, align 4, !tbaa !29
  %103 = add nsw i32 %102, 1
  store i32 %103, ptr %4, align 4, !tbaa !29
  br label %78, !llvm.loop !42

104:                                              ; preds = %98, %78
  call void @llvm.lifetime.end.p0(i64 28, ptr %5) #7
  call void @llvm.lifetime.end.p0(i64 4, ptr %4) #7
  call void @llvm.lifetime.end.p0(i64 4, ptr %3) #7
  ret void

105:                                              ; preds = %98
  unreachable
}